target datalayout = "e-m:e-p270:32:32-p271:32:32-p272:64:64-i64:64-i128:128-f80:128-n8:16:32:64-S128"
target triple = "x86_64-pc-linux-gnu"

%struct.SDL_BlitInfo = type { ptr, ptr, i32, i32, i32, i32, ptr, ptr, i32, i32, i32, i32, ptr, ptr, ptr, ptr, ptr, ptr, i32, i32, i8, i8, i8, i8 }
%struct.SDL_PixelFormatDetails = type { i32, i8, i8, [2 x i8], i32, i32, i32, i32, i8, i8, i8, i8, i8, i8, i8, i8 }

; Function Attrs: alwaysinline nounwind uwtable
define internal void @BlitBto2Key(ptr noundef %0, i32 noundef %1) #2 {
  %3 = alloca ptr, align 8
  %4 = alloca i32, align 4
  %5 = alloca i32, align 4
  %6 = alloca i32, align 4
  %7 = alloca i32, align 4
  %8 = alloca i32, align 4
  %9 = alloca ptr, align 8
  %10 = alloca ptr, align 8
  %11 = alloca i32, align 4
  %12 = alloca i32, align 4
  %13 = alloca i32, align 4
  %14 = alloca ptr, align 8
  %15 = alloca i32, align 4
  %16 = alloca i8, align 1
  %17 = alloca i8, align 1
  %18 = alloca i8, align 1
  %19 = alloca i8, align 1
  store ptr %0, ptr %3, align 8
  store i32 %1, ptr %4, align 4
  call void @llvm.lifetime.start.p0(i64 4, ptr %5) #4
  %20 = load i32, ptr %4, align 4
  %21 = shl i32 1, %20
  %22 = sub nsw i32 %21, 1
  store i32 %22, ptr %5, align 4
  call void @llvm.lifetime.start.p0(i64 4, ptr %6) #4
  %23 = load i32, ptr %4, align 4
  %24 = udiv i32 8, %23
  %25 = sub i32 %24, 1
  store i32 %25, ptr %6, align 4
  call void @llvm.lifetime.start.p0(i64 4, ptr %7) #4
  %26 = load ptr, ptr %3, align 8
  %27 = getelementptr inbounds nuw %struct.SDL_BlitInfo, ptr %26, i32 0, i32 8
  %28 = load i32, ptr %27, align 8
  store i32 %28, ptr %7, align 4
  call void @llvm.lifetime.start.p0(i64 4, ptr %8) #4
  %29 = load ptr, ptr %3, align 8
  %30 = getelementptr inbounds nuw %struct.SDL_BlitInfo, ptr %29, i32 0, i32 9
  %31 = load i32, ptr %30, align 4
  store i32 %31, ptr %8, align 4
  call void @llvm.lifetime.start.p0(i64 8, ptr %9) #4
  %32 = load ptr, ptr %3, align 8
  %33 = getelementptr inbounds nuw %struct.SDL_BlitInfo, ptr %32, i32 0, i32 1
  %34 = load ptr, ptr %33, align 8
  store ptr %34, ptr %9, align 8
  call void @llvm.lifetime.start.p0(i64 8, ptr %10) #4
  %35 = load ptr, ptr %3, align 8
  %36 = getelementptr inbounds nuw %struct.SDL_BlitInfo, ptr %35, i32 0, i32 7
  %37 = load ptr, ptr %36, align 8
  store ptr %37, ptr %10, align 8
  call void @llvm.lifetime.start.p0(i64 4, ptr %11) #4
  %38 = load ptr, ptr %3, align 8
  %39 = getelementptr inbounds nuw %struct.SDL_BlitInfo, ptr %38, i32 0, i32 5
  %40 = load i32, ptr %39, align 4
  store i32 %40, ptr %11, align 4
  call void @llvm.lifetime.start.p0(i64 4, ptr %12) #4
  %41 = load ptr, ptr %3, align 8
  %42 = getelementptr inbounds nuw %struct.SDL_BlitInfo, ptr %41, i32 0, i32 11
  %43 = load i32, ptr %42, align 4
  store i32 %43, ptr %12, align 4
  call void @llvm.lifetime.start.p0(i64 4, ptr %13) #4
  %44 = load ptr, ptr %3, align 8
  %45 = getelementptr inbounds nuw %struct.SDL_BlitInfo, ptr %44, i32 0, i32 19
  %46 = load i32, ptr %45, align 4
  store i32 %46, ptr %13, align 4
  call void @llvm.lifetime.start.p0(i64 8, ptr %14) #4
  %47 = load ptr, ptr %3, align 8
  %48 = getelementptr inbounds nuw %struct.SDL_BlitInfo, ptr %47, i32 0, i32 16
  %49 = load ptr, ptr %48, align 8
  store ptr %49, ptr %14, align 8
  call void @llvm.lifetime.start.p0(i64 4, ptr %15) #4
  %50 = load i32, ptr %4, align 4
  %51 = icmp eq i32 %50, 4
  br i1 %51, label %52, label %60

52:                                               ; preds = %2
  %53 = load i32, ptr %7, align 4
  %54 = load i32, ptr %7, align 4
  %55 = add nsw i32 %54, 1
  %56 = sdiv i32 %55, 2
  %57 = sub nsw i32 %53, %56
  %58 = load i32, ptr %11, align 4
  %59 = add nsw i32 %58, %57
  store i32 %59, ptr %11, align 4
  br label %84

60:                                               ; preds = %2
  %61 = load i32, ptr %4, align 4
  %62 = icmp eq i32 %61, 2
  br i1 %62, label %63, label %71

63:                                               ; preds = %60
  %64 = load i32, ptr %7, align 4
  %65 = load i32, ptr %7, align 4
  %66 = add nsw i32 %65, 3
  %67 = sdiv i32 %66, 4
  %68 = sub nsw i32 %64, %67
  %69 = load i32, ptr %11, align 4
  %70 = add nsw i32 %69, %68
  store i32 %70, ptr %11, align 4
  br label %83

71:                                               ; preds = %60
  %72 = load i32, ptr %4, align 4
  %73 = icmp eq i32 %72, 1
  br i1 %73, label %74, label %82

74:                                               ; preds = %71
  %75 = load i32, ptr %7, align 4
  %76 = load i32, ptr %7, align 4
  %77 = add nsw i32 %76, 7
  %78 = sdiv i32 %77, 8
  %79 = sub nsw i32 %75, %78
  %80 = load i32, ptr %11, align 4
  %81 = add nsw i32 %80, %79
  store i32 %81, ptr %11, align 4
  br label %82

82:                                               ; preds = %74, %71
  br label %83

83:                                               ; preds = %82, %63
  br label %84

84:                                               ; preds = %83, %52
  %85 = load i32, ptr %12, align 4
  %86 = sdiv i32 %85, 2
  store i32 %86, ptr %12, align 4
  %87 = load ptr, ptr %3, align 8
  %88 = getelementptr inbounds nuw %struct.SDL_BlitInfo, ptr %87, i32 0, i32 12
  %89 = load ptr, ptr %88, align 8
  %90 = getelementptr inbounds nuw %struct.SDL_PixelFormatDetails, ptr %89, i32 0, i32 0
  %91 = load i32, ptr %90, align 4
  %92 = lshr i32 %91, 20
  %93 = and i32 %92, 15
  %94 = icmp eq i32 %93, 1
  br i1 %94, label %95, label %152

95:                                               ; preds = %84
  br label %96

96:                                               ; preds = %142, %95
  %97 = load i32, ptr %8, align 4
  %98 = add nsw i32 %97, -1
  store i32 %98, ptr %8, align 4
  %99 = icmp ne i32 %97, 0
  br i1 %99, label %100, label %151

100:                                              ; preds = %96
  call void @llvm.lifetime.start.p0(i64 1, ptr %16) #4
  store i8 0, ptr %16, align 1
  call void @llvm.lifetime.start.p0(i64 1, ptr %17) #4
  store i32 0, ptr %15, align 4
  br label %101

101:                                              ; preds = %139, %100
  %102 = load i32, ptr %15, align 4
  %103 = load i32, ptr %7, align 4
  %104 = icmp slt i32 %102, %103
  br i1 %104, label %105, label %142

105:                                              ; preds = %101
  %106 = load i32, ptr %15, align 4
  %107 = load i32, ptr %6, align 4
  %108 = and i32 %106, %107
  %109 = icmp ne i32 %108, 0
  br i1 %109, label %114, label %110

110:                                              ; preds = %105
  %111 = load ptr, ptr %9, align 8
  %112 = getelementptr inbounds nuw i8, ptr %111, i32 1
  store ptr %112, ptr %9, align 8
  %113 = load i8, ptr %111, align 1
  store i8 %113, ptr %16, align 1
  br label %114

114:                                              ; preds = %110, %105
  %115 = load i8, ptr %16, align 1
  %116 = zext i8 %115 to i32
  %117 = load i32, ptr %5, align 4
  %118 = and i32 %116, %117
  %119 = trunc i32 %118 to i8
  store i8 %119, ptr %17, align 1
  %120 = load i8, ptr %17, align 1
  %121 = zext i8 %120 to i32
  %122 = load i32, ptr %13, align 4
  %123 = icmp ne i32 %121, %122
  br i1 %123, label %124, label %131

124:                                              ; preds = %114
  %125 = load ptr, ptr %14, align 8
  %126 = load i8, ptr %17, align 1
  %127 = zext i8 %126 to i64
  %128 = getelementptr inbounds nuw i16, ptr %125, i64 %127
  %129 = load i16, ptr %128, align 2
  %130 = load ptr, ptr %10, align 8
  store i16 %129, ptr %130, align 2
  br label %131

131:                                              ; preds = %124, %114
  %132 = load i32, ptr %4, align 4
  %133 = load i8, ptr %16, align 1
  %134 = zext i8 %133 to i32
  %135 = ashr i32 %134, %132
  %136 = trunc i32 %135 to i8
  store i8 %136, ptr %16, align 1
  %137 = load ptr, ptr %10, align 8
  %138 = getelementptr inbounds nuw i16, ptr %137, i32 1
  store ptr %138, ptr %10, align 8
  br label %139

139:                                              ; preds = %131
  %140 = load i32, ptr %15, align 4
  %141 = add nsw i32 %140, 1
  store i32 %141, ptr %15, align 4
  br label %101, !llvm.loop !40

142:                                              ; preds = %101
  %143 = load i32, ptr %11, align 4
  %144 = load ptr, ptr %9, align 8
  %145 = sext i32 %143 to i64
  %146 = getelementptr inbounds i8, ptr %144, i64 %145
  store ptr %146, ptr %9, align 8
  %147 = load i32, ptr %12, align 4
  %148 = load ptr, ptr %10, align 8
  %149 = sext i32 %147 to i64
  %150 = getelementptr inbounds i16, ptr %148, i64 %149
  store ptr %150, ptr %10, align 8
  call void @llvm.lifetime.end.p0(i64 1, ptr %17) #4
  call void @llvm.lifetime.end.p0(i64 1, ptr %16) #4
  br label %96, !llvm.loop !41

151:                                              ; preds = %96
  br label %212

152:                                              ; preds = %84
  br label %153

153:                                              ; preds = %202, %152
  %154 = load i32, ptr %8, align 4
  %155 = add nsw i32 %154, -1
  store i32 %155, ptr %8, align 4
  %156 = icmp ne i32 %154, 0
  br i1 %156, label %157, label %211

157:                                              ; preds = %153
  call void @llvm.lifetime.start.p0(i64 1, ptr %18) #4
  store i8 0, ptr %18, align 1
  call void @llvm.lifetime.start.p0(i64 1, ptr %19) #4
  store i32 0, ptr %15, align 4
  br label %158

158:                                              ; preds = %199, %157
  %159 = load i32, ptr %15, align 4
  %160 = load i32, ptr %7, align 4
  %161 = icmp slt i32 %159, %160
  br i1 %161, label %162, label %202

162:                                              ; preds = %158
  %163 = load i32, ptr %15, align 4
  %164 = load i32, ptr %6, align 4
  %165 = and i32 %163, %164
  %166 = icmp ne i32 %165, 0
  br i1 %166, label %171, label %167

167:                                              ; preds = %162
  %168 = load ptr, ptr %9, align 8
  %169 = getelementptr inbounds nuw i8, ptr %168, i32 1
  store ptr %169, ptr %9, align 8
  %170 = load i8, ptr %168, align 1
  store i8 %170, ptr %18, align 1
  br label %171

171:                                              ; preds = %167, %162
  %172 = load i8, ptr %18, align 1
  %173 = zext i8 %172 to i32
  %174 = load i32, ptr %4, align 4
  %175 = sub i32 8, %174
  %176 = ashr i32 %173, %175
  %177 = load i32, ptr %5, align 4
  %178 = and i32 %176, %177
  %179 = trunc i32 %178 to i8
  store i8 %179, ptr %19, align 1
  %180 = load i8, ptr %19, align 1
  %181 = zext i8 %180 to i32
  %182 = load i32, ptr %13, align 4
  %183 = icmp ne i32 %181, %182
  br i1 %183, label %184, label %191

184:                                              ; preds = %171
  %185 = load ptr, ptr %14, align 8
  %186 = load i8, ptr %19, align 1
  %187 = zext i8 %186 to i64
  %188 = getelementptr inbounds nuw i16, ptr %185, i64 %187
  %189 = load i16, ptr %188, align 2
  %190 = load ptr, ptr %10, align 8
  store i16 %189, ptr %190, align 2
  br label %191

191:                                              ; preds = %184, %171
  %192 = load i32, ptr %4, align 4
  %193 = load i8, ptr %18, align 1
  %194 = zext i8 %193 to i32
  %195 = shl i32 %194, %192
  %196 = trunc i32 %195 to i8
  store i8 %196, ptr %18, align 1
  %197 = load ptr, ptr %10, align 8
  %198 = getelementptr inbounds nuw i16, ptr %197, i32 1
  store ptr %198, ptr %10, align 8
  br label %199

199:                                              ; preds = %191
  %200 = load i32, ptr %15, align 4
  %201 = add nsw i32 %200, 1
  store i32 %201, ptr %15, align 4
  br label %158, !llvm.loop !42

202:                                              ; preds = %158
  %203 = load i32, ptr %11, align 4
  %204 = load ptr, ptr %9, align 8
  %205 = sext i32 %203 to i64
  %206 = getelementptr inbounds i8, ptr %204, i64 %205
  store ptr %206, ptr %9, align 8
  %207 = load i32, ptr %12, align 4
  %208 = load ptr, ptr %10, align 8
  %209 = sext i32 %207 to i64
  %210 = getelementptr inbounds i16, ptr %208, i64 %209
  store ptr %210, ptr %10, align 8
  call void @llvm.lifetime.end.p0(i64 1, ptr %19) #4
  call void @llvm.lifetime.end.p0(i64 1, ptr %18) #4
  br label %153, !llvm.loop !43

211:                                              ; preds = %153
  br label %212

212:                                              ; preds = %211, %151
  call void @llvm.lifetime.end.p0(i64 4, ptr %15) #4
  call void @llvm.lifetime.end.p0(i64 8, ptr %14) #4
  call void @llvm.lifetime.end.p0(i64 4, ptr %13) #4
  call void @llvm.lifetime.end.p0(i64 4, ptr %12) #4
  call void @llvm.lifetime.end.p0(i64 4, ptr %11) #4
  call void @llvm.lifetime.end.p0(i64 8, ptr %10) #4
  call void @llvm.lifetime.end.p0(i64 8, ptr %9) #4
  call void @llvm.lifetime.end.p0(i64 4, ptr %8) #4
  call void @llvm.lifetime.end.p0(i64 4, ptr %7) #4
  call void @llvm.lifetime.end.p0(i64 4, ptr %6) #4
  call void @llvm.lifetime.end.p0(i64 4, ptr %5) #4
  ret void
}

; Function Attrs: nounwind uwtable
define internal void @Blit1bto2Key(ptr noundef %0) #0 {
  %2 = alloca ptr, align 8
  store ptr %0, ptr %2, align 8
  %3 = load ptr, ptr %2, align 8
  call void @BlitBto2Key(ptr noundef %3, i32 noundef 1)
  ret void
}